; Function Attrs: mustprogress nofree norecurse nosync nounwind willreturn memory(argmem: write) uwtable
define dso_local void @_ZN4llvm13CoroSplitPassC2Eb(ptr noundef nonnull writeonly align 8 captures(none) dereferenceable(33) initializes((0, 33)) %0, i1 noundef zeroext %1) unnamed_addr #3 align 2 {
  %3 = zext i1 %1 to i8
  %4 = getelementptr inbounds nuw i8, ptr %0, i64 16
  %5 = getelementptr inbounds nuw i8, ptr %0, i64 24
  %6 = getelementptr inbounds nuw i8, ptr %0, i64 8
  store i64 0, ptr %6, align 8
  store ptr @_ZN4llvm4coro21defaultMaterializableERNS_11InstructionE, ptr %0, align 8
  store ptr @_ZNSt17_Function_handlerIFbRN4llvm11InstructionEEPS3_E9_M_invokeERKSt9_Any_dataS2_, ptr %5, align 8
  store ptr @_ZNSt17_Function_handlerIFbRN4llvm11InstructionEEPS3_E10_M_managerERSt9_Any_dataRKS6_St18_Manager_operation, ptr %4, align 8
  %7 = getelementptr inbounds nuw i8, ptr %0, i64 32
  store i8 %3, ptr %7, align 8
  ret void
}